(dp1
S'c468889b3e4d9d49ed1e02b8e320bc6376921623'
p2
(iplexserver
PlexMediaServer
p3
(dp4
S'protocol'
p5
S'http'
p6
sS'plex_home_enabled'
p7
I01
sS'owned'
p8
I1
sS'discovered'
p9
I01
sS'plex_identification_string'
p10
S'X-Plex-Platform=KODI&X-Plex-Client-Platform=KODI&X-Plex-Device-Name=My%20PleXBMC%20Client&X-Plex-Provides=player&X-Plex-Model=unknown&X-Plex-Platform-Version=Windows&X-Plex-Client-Identifier=a4d98aa8-407e-425a-aa54-bd17cef3cd92&X-Plex-Device=PleXBMC&X-Plex-Product=PleXBMC&X-Plex-Language=en&X-Plex-Version=4.0.0%7Ebeta4'
p11
sS'external_port'
p12
NsS'plex_identification_header'
p13
(dp14
S'X-Plex-Platform'
p15
S'KODI'
p16
sS'X-Plex-Client-Platform'
p17
g16
sS'X-Plex-Device-Name'
p18
S'My PleXBMC Client'
p19
sS'X-Plex-Provides'
p20
S'player'
p21
sS'X-Plex-Model'
p22
S'unknown'
p23
sS'X-Plex-Platform-Version'
p24
S'Windows'
p25
sS'X-Plex-Client-Identifier'
p26
S'a4d98aa8-407e-425a-aa54-bd17cef3cd92'
p27
sS'X-Plex-Device'
p28
S'PleXBMC'
p29
sS'X-Plex-Product'
p30
g29
sS'X-Plex-Language'
p31
S'en'
p32
sS'X-Plex-Version'
p33
S'4.0.0~beta4'
p34
ssS'uuid'
p35
g2
sS'server_name'
p36
S'ApolloPLEX'
p37
sS'local_port'
p38
S'32400'
p39
sS'access_port'
p40
g39
sS'master'
p41
I1
sS'local_address'
p42
(lp43
S'192.168.1.75'
p44
asS'offline'
p45
I00
sS'_PlexMediaServer__revision'
p46
S'1.0.7'
p47
sS'discovery'
p48
g48
sS'class_type'
p49
S'primary'
p50
sS'section_list'
p51
(lp52
sS'user'
p53
NsS'client_id'
p54
g27
sS'external_address'
p55
NsS'best_address'
p56
S'address'
p57
sS'device_name'
p58
g19
sS'token'
p59
NsS'access_address'
p60
g44
sbs.