(dp0
S'rd'
p1
(lp2
V1fichier.com
p3
aValterupload.com
p4
aVcjoint.net
p5
aVdesfichiers.com
p6
aVdfichiers.com
p7
aVmegadl.fr
p8
aVmesfichiers.org
p9
aVpiecejointe.net
p10
aVpjointe.com
p11
aVtenvoi.com
p12
aVdl4free.com
p13
aV24uploading.com
p14
aV2shared.com
p15
aV4shared.com
p16
aValfafile.net
p17
aVallmyvideos.net
p18
aVanafile.com
p19
aVcanalplus.fr
p20
aVcatshare.net
p21
aVcbs.com
p22
aVclicknupload.me
p23
aVclicknupload.com
p24
aVcloudtime.to
p25
aVdivxstage.eu
p26
aVdivxstage.to
p27
aVdailymotion.com
p28
aVdatafile.com
p29
aVdatafilehost.com
p30
aVdatei.to
p31
aVdepfile.com
p32
aVi-filez.com
p33
aVdl.free.fr
p34
aVeasybytez.com
p35
aVexashare.com
p36
aVextmatrix.com
p37
aVfaststore.org
p38
aVfilecloud.io
p39
aVfilefactory.com
p40
aVfileflyer.com
p41
aVfileover.net
p42
aVfilerio.com
p43
aVfilerio.in
p44
aVfilesflash.com
p45
aVfilesflash.net
p46
aVfilesmonster.com
p47
aVgigapeta.com
p48
aVgigasize.com
p49
aVgboxes.com
p50
aVgulfup.com
p51
aVhugefiles.net
p52
aVhulkshare.com
p53
aVkeep2share.cc
p54
aVk2s.cc
p55
aVkeep2s.cc
p56
aVk2share.cc
p57
aVkingfiles.net
p58
aVletitbit.net
p59
aVload.to
p60
aVluckyshare.net
p61
aVmediafire.com
p62
aVmega.co.nz
p63
aVmega.nz
p64
aVmegashares.com
p65
aVmightyupload.com
p66
aVmovshare.net
p67
aVwholecloud.net
p68
aVnitroflare.com
p69
aVnovamov.com
p70
aVauroravid.to
p71
aVnowdownload.eu
p72
aVnowdownload.ch
p73
aVnowdownload.sx
p74
aVnowdownload.ag
p75
aVnowdownload.at
p76
aVnowdownload.ec
p77
aVnowdownload.li
p78
aVnowdownload.to
p79
aVnowvideo.eu
p80
aVnowvideo.ch
p81
aVnowvideo.sx
p82
aVnowvideo.ag
p83
aVnowvideo.at
p84
aVnowvideo.li
p85
aVoboom.com
p86
aVopenload.co
p87
aVopenload.io
p88
aVozofiles.com
p89
aVpurevid.com
p90
aVsky.fm
p91
aVradiotunes.com
p92
aVrapidgator.net
p93
aVrg.to
p94
aVrarefile.net
p95
aVredbunker.net
p96
aVredtube.com
p97
aVrockfile.eu
p98
aVrutube.ru
p99
aVsalefiles.com
p100
aVscribd.com
p101
aVsecureupload.eu
p102
aVsendspace.com
p103
aVshare-online.biz
p104
aVshareflare.net
p105
aVsoundcloud.com
p106
aVspeedyshare.com
p107
aVthevideo.me
p108
aVturbobit.net
p109
aVtusfiles.net
p110
aVulozto.net
p111
aVuloz.to
p112
aVulozto.sk
p113
aVunibytes.com
p114
aVuplea.com
p115
aVupload.af
p116
aVuploadable.ch
p117
aVuploadc.com
p118
aVuploadc.ch
p119
aVuploaded.net
p120
aVuploaded.to
p121
aVul.to
p122
aVuploading.com
p123
aVuploadrocket.net
p124
aVuploadx.org
p125
aVupstore.net
p126
aVuptobox.com
p127
aVuptostream.com
p128
aVuserporn.com
p129
aVuserscloud.com
p130
aVveevr.com
p131
aVvideoweed.es
p132
aVbitvid.sx
p133
aVvimeo.com
p134
aVvip-file.com
p135
aVvipfile.in
p136
aVwat.tv
p137
aVyouporn.com
p138
aVyoutube.com
p139
aVyouwatch.org
p140
aVyunfile.com
p141
aVfilemarkets.com
p142
aV5xpan.com
p143
aVdix3.com
p144
aVzippyshare.com
p145
asS'rp'
p146
(lp147
V1fichier.com
p148
aV24uploading.com
p149
aVakafile.com
p150
aVanafile.com
p151
aVcloudtime.to
p152
aVdatafile.com
p153
aVdepfile.com
p154
aVdivxstage.to
p155
aVezfile.ch
p156
aVfilecloud.io
p157
aVfiledais.com
p158
aVfilepup.net
p159
aVfilerio.in
p160
aVfilesabc.com
p161
aVfilesflash.com
p162
aVfilespace.com
p163
aVfiletut.com
p164
aVfiredrop.com
p165
aVhugefiles.net
p166
aVifile.it
p167
aVinclouddrive.com
p168
aVjunocloud.me
p169
aVletitbit.net
p170
aVlivefile.co.uk
p171
aVmegashares.com
p172
aVmovshare.net
p173
aVnitroflare.com
p174
aVnornar.com
p175
aVnovamov.com
p176
aVnowvideo.sx
p177
aVoboom.com
p178
aVprefiles.com
p179
aVputlocker.ws
p180
aVrapidfileshare.net
p181
aVrapidgator.net
p182
aVrapidrar.com
p183
aVrg.to
p184
aVsafelinking.net
p185
aVsalefiles.com
p186
aVsecureupload.eu
p187
aVshare-online.biz
p188
aVshareflare.net
p189
aVspeedy.sh
p190
aVspeedyshare.com
p191
aVturbobit.net
p192
aVtusfiles.net
p193
aVul.to
p194
aVunlimitzone.com
p195
aVuploadable.ch
p196
aVuploaded.net
p197
aVuploaded.to
p198
aVuploading.com
p199
aVuploadrocket.net
p200
aVuptobox.com
p201
aVvideoweed.es
p202
asS'ad'
p203
(lp204
V180upload.com
p205
aV24uploading.com
p206
aV1fichier.com
p207
aV1st-files.com
p208
aV2shared.com
p209
aV4shared.com
p210
aValbafile.com
p211
aVasfile.com
p212
aVbitshare.com
p213
aVcrocko.com
p214
aVdatafile.com
p215
aVdatei.to
p216
aVdepfile.com
p217
aVdizzcloud.com
p218
aVeasybytez.com
p219
aVexoshare.com
p220
aVextmatrix.com
p221
aVfaststore.org
p222
aVfile4safe.com
p223
aVfilebox.com
p224
aVfilecloud.org
p225
aVfileden.com
p226
aVfileflyer.com
p227
aVfilemade.com
p228
aVfilemonkey.com
p229
aVfileover.net
p230
aVfilepost.com
p231
aVfilerio.in
p232
aVfilesabc.com
p233
aVfilesave.me
p234
aVfilesend.com
p235
aVfilesflash.com
p236
aVfilesflash.net
p237
aVfilesmonster.net
p238
aVfileswap.com
p239
aVfiredrive.com
p240
aVfreakshare.com
p241
aVfreakshare.net
p242
aVfree.fr
p243
aVgigapeta.com
p244
aVgigasize.com
p245
aVgulfup.com
p246
aVhostingbulk.com
p247
aVhulkshare.com
p248
aVjumbofiles.com
p249
aVkingfiles.net
p250
aVletitbit.net
p251
aVload.to
p252
aVluckyshare.net
p253
aVmediafire.com
p254
aVmega.co.nz
p255
aVmegashares.com
p256
aVmixturevideo.com
p257
aVmuchshare.net
p258
aVnetload.in
p259
aVnowdownload.eu
p260
aVprefiles.com
p261
aVpurevid.com
p262
aVrapidgator.net
p263
aVrg.to
p264
aVrapidshare.com
p265
aVscribd.com
p266
aVsendspace.com
p267
aVsharebeast.com
p268
aVsharebees.com
p269
aVshareflare.net
p270
aVshare-online.biz
p271
aVshare-rapid.com
p272
aVsockshare.com
p273
aVsoundcloud.com
p274
aVspeedyshare.com
p275
aVturbobit.net
p276
aVuload.to
p277
aVunibytes.com
p278
aVuplea.com
p279
aVuploadbox.com
p280
aVuploadc.com
p281
aVuploaded.to
p282
aVuploaded.net
p283
aVul.to
p284
aVuploadable.ch
p285
aVuploadhero.co
p286
aVuploading.com
p287
aVuploadking.com
p288
aVuploadspace.pl
p289
aVuptobox.com
p290
aVuserporn.com
p291
aVvidbux.com
p292
aVvidxden.com
p293
aVvip-file.com
p294
aVyoutube.com
p295
aVyunfile.com
p296
aVzippyshare.com
p297
aVzshare.net
p298
asS'pm'
p299
(lp300
s.