(dp0
S'rd'
p1
(lp2
V1fichier.com
p3
aValterupload.com
p4
aVcjoint.net
p5
aVdesfichiers.com
p6
aVdfichiers.com
p7
aVmegadl.fr
p8
aVmesfichiers.org
p9
aVpiecejointe.net
p10
aVpjointe.com
p11
aVtenvoi.com
p12
aVdl4free.com
p13
aV24uploading.com
p14
aV2shared.com
p15
aV4shared.com
p16
aValfafile.net
p17
aVallmyvideos.net
p18
aVanafile.com
p19
aVcanalplus.fr
p20
aVcatshare.net
p21
aVcbs.com
p22
aVclicknupload.me
p23
aVclicknupload.com
p24
aVcloudtime.to
p25
aVdivxstage.eu
p26
aVdivxstage.to
p27
aVdailymotion.com
p28
aVdatafile.com
p29
aVdatafilehost.com
p30
aVdatei.to
p31
aVdepfile.com
p32
aVi-filez.com
p33
aVdl.free.fr
p34
aVeasybytez.com
p35
aVexashare.com
p36
aVextmatrix.com
p37
aVfaststore.org
p38
aVfilecloud.io
p39
aVfilefactory.com
p40
aVfileflyer.com
p41
aVfileover.net
p42
aVfilerio.com
p43
aVfilerio.in
p44
aVfilesflash.com
p45
aVfilesflash.net
p46
aVfilesmonster.com
p47
aVgigapeta.com
p48
aVgigasize.com
p49
aVgboxes.com
p50
aVgulfup.com
p51
aVhugefiles.net
p52
aVhulkshare.com
p53
aVkeep2share.cc
p54
aVk2s.cc
p55
aVkeep2s.cc
p56
aVk2share.cc
p57
aVkingfiles.net
p58
aVletitbit.net
p59
aVload.to
p60
aVluckyshare.net
p61
aVmediafire.com
p62
aVmega.co.nz
p63
aVmega.nz
p64
aVmegashares.com
p65
aVmightyupload.com
p66
aVmovshare.net
p67
aVwholecloud.net
p68
aVnitroflare.com
p69
aVnovamov.com
p70
aVauroravid.to
p71
aVnowdownload.eu
p72
aVnowdownload.ch
p73
aVnowdownload.sx
p74
aVnowdownload.ag
p75
aVnowdownload.at
p76
aVnowdownload.ec
p77
aVnowdownload.li
p78
aVnowdownload.to
p79
aVnowvideo.eu
p80
aVnowvideo.ch
p81
aVnowvideo.sx
p82
aVnowvideo.ag
p83
aVnowvideo.at
p84
aVnowvideo.li
p85
aVoboom.com
p86
aVopenload.co
p87
aVopenload.io
p88
aVozofiles.com
p89
aVpurevid.com
p90
aVsky.fm
p91
aVradiotunes.com
p92
aVrapidgator.net
p93
aVrg.to
p94
aVrarefile.net
p95
aVredbunker.net
p96
aVredtube.com
p97
aVrockfile.eu
p98
aVrutube.ru
p99
aVsalefiles.com
p100
aVscribd.com
p101
aVsecureupload.eu
p102
aVsendspace.com
p103
aVshare-online.biz
p104
aVshareflare.net
p105
aVsoundcloud.com
p106
aVspeedyshare.com
p107
aVthevideo.me
p108
aVturbobit.net
p109
aVtusfiles.net
p110
aVulozto.net
p111
aVuloz.to
p112
aVulozto.sk
p113
aVunibytes.com
p114
aVuplea.com
p115
aVupload.af
p116
aVuploadable.ch
p117
aVuploadc.com
p118
aVuploadc.ch
p119
aVuploaded.net
p120
aVuploaded.to
p121
aVul.to
p122
aVuploading.com
p123
aVuploadrocket.net
p124
aVuploadx.org
p125
aVupstore.net
p126
aVuptobox.com
p127
aVuptostream.com
p128
aVuserporn.com
p129
aVuserscloud.com
p130
aVveevr.com
p131
aVvideoweed.es
p132
aVvimeo.com
p133
aVvip-file.com
p134
aVvipfile.in
p135
aVwat.tv
p136
aVyouporn.com
p137
aVyoutube.com
p138
aVyouwatch.org
p139
aVyunfile.com
p140
aVfilemarkets.com
p141
aV5xpan.com
p142
aVzippyshare.com
p143
asS'rp'
p144
(lp145
V1fichier.com
p146
aV24uploading.com
p147
aVakafile.com
p148
aVanafile.com
p149
aVcloudtime.to
p150
aVdatafile.com
p151
aVdepfile.com
p152
aVdivxstage.to
p153
aVezfile.ch
p154
aVfilecloud.io
p155
aVfiledais.com
p156
aVfilepup.net
p157
aVfilerio.in
p158
aVfilesabc.com
p159
aVfilesflash.com
p160
aVfilespace.com
p161
aVfiletut.com
p162
aVfiredrop.com
p163
aVhugefiles.net
p164
aVifile.it
p165
aVinclouddrive.com
p166
aVjunocloud.me
p167
aVletitbit.net
p168
aVlivefile.co.uk
p169
aVmegashares.com
p170
aVmovshare.net
p171
aVnitroflare.com
p172
aVnornar.com
p173
aVnovamov.com
p174
aVnowvideo.sx
p175
aVoboom.com
p176
aVprefiles.com
p177
aVputlocker.ws
p178
aVrapidfileshare.net
p179
aVrapidgator.net
p180
aVrapidrar.com
p181
aVrg.to
p182
aVsafelinking.net
p183
aVsalefiles.com
p184
aVsecureupload.eu
p185
aVshare-online.biz
p186
aVshareflare.net
p187
aVspeedy.sh
p188
aVspeedyshare.com
p189
aVturbobit.net
p190
aVtusfiles.net
p191
aVul.to
p192
aVunlimitzone.com
p193
aVuploadable.ch
p194
aVuploaded.net
p195
aVuploaded.to
p196
aVuploading.com
p197
aVuploadrocket.net
p198
aVuptobox.com
p199
aVvideoweed.es
p200
asS'ad'
p201
(lp202
V180upload.com
p203
aV24uploading.com
p204
aV1fichier.com
p205
aV1st-files.com
p206
aV2shared.com
p207
aV4shared.com
p208
aValbafile.com
p209
aVasfile.com
p210
aVbitshare.com
p211
aVcrocko.com
p212
aVdatafile.com
p213
aVdatei.to
p214
aVdepfile.com
p215
aVdizzcloud.com
p216
aVeasybytez.com
p217
aVexoshare.com
p218
aVextmatrix.com
p219
aVfaststore.org
p220
aVfile4safe.com
p221
aVfilebox.com
p222
aVfilecloud.org
p223
aVfileden.com
p224
aVfileflyer.com
p225
aVfilemade.com
p226
aVfilemonkey.com
p227
aVfileover.net
p228
aVfilepost.com
p229
aVfilerio.in
p230
aVfilesabc.com
p231
aVfilesave.me
p232
aVfilesend.com
p233
aVfilesflash.com
p234
aVfilesflash.net
p235
aVfilesmonster.net
p236
aVfileswap.com
p237
aVfiredrive.com
p238
aVfreakshare.com
p239
aVfreakshare.net
p240
aVfree.fr
p241
aVgigapeta.com
p242
aVgigasize.com
p243
aVgulfup.com
p244
aVhostingbulk.com
p245
aVhulkshare.com
p246
aVjumbofiles.com
p247
aVkingfiles.net
p248
aVletitbit.net
p249
aVload.to
p250
aVluckyshare.net
p251
aVmediafire.com
p252
aVmega.co.nz
p253
aVmegashares.com
p254
aVmixturevideo.com
p255
aVmuchshare.net
p256
aVnetload.in
p257
aVnowdownload.eu
p258
aVprefiles.com
p259
aVpurevid.com
p260
aVrapidgator.net
p261
aVrg.to
p262
aVrapidshare.com
p263
aVscribd.com
p264
aVsendspace.com
p265
aVsharebeast.com
p266
aVsharebees.com
p267
aVshareflare.net
p268
aVshare-online.biz
p269
aVshare-rapid.com
p270
aVsockshare.com
p271
aVsoundcloud.com
p272
aVspeedyshare.com
p273
aVturbobit.net
p274
aVuload.to
p275
aVunibytes.com
p276
aVuplea.com
p277
aVuploadbox.com
p278
aVuploadc.com
p279
aVuploaded.to
p280
aVuploaded.net
p281
aVul.to
p282
aVuploadable.ch
p283
aVuploadhero.co
p284
aVuploading.com
p285
aVuploadking.com
p286
aVuploadspace.pl
p287
aVuptobox.com
p288
aVuserporn.com
p289
aVvidbux.com
p290
aVvidxden.com
p291
aVvip-file.com
p292
aVyoutube.com
p293
aVyunfile.com
p294
aVzippyshare.com
p295
aVzshare.net
p296
asS'pm'
p297
(lp298
s.